; Function Attrs: mustprogress nofree norecurse nosync nounwind willreturn memory(read, inaccessiblemem: none) uwtable
define noundef zeroext i1 @_ZNK32pxrInternal_v0_24__pxrReserved__7GfVec4heqERKNS_7GfVec4fE(ptr nocapture noundef nonnull readonly align 2 dereferenceable(8) %0, ptr nocapture noundef nonnull readonly align 4 dereferenceable(16) %1) local_unnamed_addr #2 align 2 {
  %3 = load i16, ptr %0, align 2
  %4 = zext i16 %3 to i64
  %5 = getelementptr inbounds [65536 x %"union.pxrInternal_v0_24__pxrReserved__::pxr_half::half::uif"], ptr @_ZN32pxrInternal_v0_24__pxrReserved__8pxr_half4half8_toFloatE, i64 0, i64 %4
  %6 = load float, ptr %5, align 4
  %7 = load float, ptr %1, align 4
  %8 = fcmp oeq float %6, %7
  br i1 %8, label %9, label %36

9:                                                ; preds = %2
  %10 = getelementptr inbounds i8, ptr %0, i64 2
  %11 = load i16, ptr %10, align 2
  %12 = zext i16 %11 to i64
  %13 = getelementptr inbounds [65536 x %"union.pxrInternal_v0_24__pxrReserved__::pxr_half::half::uif"], ptr @_ZN32pxrInternal_v0_24__pxrReserved__8pxr_half4half8_toFloatE, i64 0, i64 %12
  %14 = load float, ptr %13, align 4
  %15 = getelementptr inbounds i8, ptr %1, i64 4
  %16 = load float, ptr %15, align 4
  %17 = fcmp oeq float %14, %16
  br i1 %17, label %18, label %36

18:                                               ; preds = %9
  %19 = getelementptr inbounds i8, ptr %0, i64 4
  %20 = load i16, ptr %19, align 2
  %21 = zext i16 %20 to i64
  %22 = getelementptr inbounds [65536 x %"union.pxrInternal_v0_24__pxrReserved__::pxr_half::half::uif"], ptr @_ZN32pxrInternal_v0_24__pxrReserved__8pxr_half4half8_toFloatE, i64 0, i64 %21
  %23 = load float, ptr %22, align 4
  %24 = getelementptr inbounds i8, ptr %1, i64 8
  %25 = load float, ptr %24, align 4
  %26 = fcmp oeq float %23, %25
  br i1 %26, label %27, label %36

27:                                               ; preds = %18
  %28 = getelementptr inbounds i8, ptr %0, i64 6
  %29 = load i16, ptr %28, align 2
  %30 = zext i16 %29 to i64
  %31 = getelementptr inbounds [65536 x %"union.pxrInternal_v0_24__pxrReserved__::pxr_half::half::uif"], ptr @_ZN32pxrInternal_v0_24__pxrReserved__8pxr_half4half8_toFloatE, i64 0, i64 %30
  %32 = load float, ptr %31, align 4
  %33 = getelementptr inbounds i8, ptr %1, i64 12
  %34 = load float, ptr %33, align 4
  %35 = fcmp oeq float %32, %34
  br label %36

36:                                               ; preds = %27, %18, %9, %2
  %37 = phi i1 [ false, %18 ], [ false, %9 ], [ false, %2 ], [ %35, %27 ]
  ret i1 %37
}